target datalayout = "e-m:e-p270:32:32-p271:32:32-p272:64:64-i64:64-i128:128-f80:128-n8:16:32:64-S128"
target triple = "x86_64-pc-linux-gnu"

; Function Attrs: mustprogress nounwind uwtable
define linkonce_odr hidden noundef double @_Z10conversionI33FastUnorderedElapsedCounterSourceLi1000EEdRNT_4TypeE(ptr noundef nonnull align 8 dereferenceable(8) %0) #1 comdat {
  %2 = alloca ptr, align 8
  store ptr %0, ptr %2, align 8
  %3 = load ptr, ptr %2, align 8
  %4 = load i64, ptr %3, align 8
  %5 = sitofp i64 %4 to double
  %6 = call noundef i64 @_ZN33FastUnorderedElapsedCounterSource9frequencyEv()
  %7 = uitofp i64 %6 to double
  %8 = fdiv double 1.000000e+03, %7
  %9 = fmul double %5, %8
  ret double %9
}

; Function Attrs: mustprogress nounwind uwtable
define hidden noundef i64 @_ZN33FastUnorderedElapsedCounterSource12millisecondsEl(i64 noundef %0) #1 align 2 {
  %2 = alloca i64, align 8
  store i64 %0, ptr %2, align 8
  %3 = call noundef double @_Z10conversionI33FastUnorderedElapsedCounterSourceLi1000EEdRNT_4TypeE(ptr noundef nonnull align 8 dereferenceable(8) %2)
  %4 = fptoui double %3 to i64
  ret i64 %4
}